target datalayout = "e-m:e-p270:32:32-p271:32:32-p272:64:64-i64:64-i128:128-f80:128-n8:16:32:64-S128"
target triple = "x86_64-pc-linux-gnu"

%struct.paramType = type { i32, ptr, ptr, i32 }
%class.Scheduler = type { [200 x %"struct.Scheduler::handType"], [200 x %"struct.Scheduler::groupType"], i32, i32, %"struct.std::atomic", [6 x [200 x %"struct.Scheduler::listType"]], [200 x %"struct.Scheduler::sortType"], i32, %"class.std::vector", %"class.std::vector", %"class.std::vector", i32, i32, %"class.std::vector", %"class.std::vector.0", %class.Timer }
%"struct.Scheduler::handType" = type { i32, i32, [4 x [4 x i32]], i32, i32, i32, i32, i32, i32, i32, i32, i32, i32 }
%"struct.Scheduler::groupType" = type { i32, i32, i32, i32, i32, i32 }
%"struct.std::atomic" = type { %"struct.std::__atomic_base" }
%"struct.std::__atomic_base" = type { i32 }
%"struct.Scheduler::listType" = type { i32, i32, i32 }
%"struct.Scheduler::sortType" = type { i32, i32 }
%"class.std::vector" = type { %"struct.std::_Vector_base" }
%"struct.std::_Vector_base" = type { %"struct.std::_Vector_base<int, std::allocator<int>>::_Vector_impl" }
%"struct.std::_Vector_base<int, std::allocator<int>>::_Vector_impl" = type { %"struct.std::_Vector_base<int, std::allocator<int>>::_Vector_impl_data" }
%"struct.std::_Vector_base<int, std::allocator<int>>::_Vector_impl_data" = type { ptr, ptr, ptr }
%"class.std::vector.0" = type { %"struct.std::_Vector_base.1" }
%"struct.std::_Vector_base.1" = type { %"struct.std::_Vector_base<Timer, std::allocator<Timer>>::_Vector_impl" }
%"struct.std::_Vector_base<Timer, std::allocator<Timer>>::_Vector_impl" = type { %"struct.std::_Vector_base<Timer, std::allocator<Timer>>::_Vector_impl_data" }
%"struct.std::_Vector_base<Timer, std::allocator<Timer>>::_Vector_impl_data" = type { ptr, ptr, ptr }
%class.Timer = type { %"class.std::__cxx11::basic_string", i32, i64, i64, %"class.std::chrono::time_point", i64 }
%"class.std::__cxx11::basic_string" = type { %"struct.std::__cxx11::basic_string<char>::_Alloc_hider", i64, %union.anon }
%"struct.std::__cxx11::basic_string<char>::_Alloc_hider" = type { ptr }
%union.anon = type { i64, [8 x i8] }
%"class.std::chrono::time_point" = type { %"class.std::chrono::duration" }
%"class.std::chrono::duration" = type { i64 }
%class.System = type { i32, i32, i32, i32, i32, i32, %"class.std::vector.8", %"class.std::vector.12", %"class.std::vector.17", %"class.std::vector.22", %"class.std::vector.27", %"class.std::vector.32", ptr, ptr }
%"class.std::vector.8" = type { %"struct.std::_Bvector_base" }
%"struct.std::_Bvector_base" = type { %"struct.std::_Bvector_base<std::allocator<bool>>::_Bvector_impl" }
%"struct.std::_Bvector_base<std::allocator<bool>>::_Bvector_impl" = type { %"struct.std::_Bvector_base<std::allocator<bool>>::_Bvector_impl_data" }
%"struct.std::_Bvector_base<std::allocator<bool>>::_Bvector_impl_data" = type { %"struct.std::_Bit_iterator", %"struct.std::_Bit_iterator", ptr }
%"struct.std::_Bit_iterator" = type { %"struct.std::_Bit_iterator_base.base", [4 x i8] }
%"struct.std::_Bit_iterator_base.base" = type <{ ptr, i32 }>
%"class.std::vector.12" = type { %"struct.std::_Vector_base.13" }
%"struct.std::_Vector_base.13" = type { %"struct.std::_Vector_base<void (*)(int), std::allocator<void (*)(int)>>::_Vector_impl" }
%"struct.std::_Vector_base<void (*)(int), std::allocator<void (*)(int)>>::_Vector_impl" = type { %"struct.std::_Vector_base<void (*)(int), std::allocator<void (*)(int)>>::_Vector_impl_data" }
%"struct.std::_Vector_base<void (*)(int), std::allocator<void (*)(int)>>::_Vector_impl_data" = type { ptr, ptr, ptr }
%"class.std::vector.17" = type { %"struct.std::_Vector_base.18" }
%"struct.std::_Vector_base.18" = type { %"struct.std::_Vector_base<void (*)(const boards &, std::vector<int> &, std::vector<int> &), std::allocator<void (*)(const boards &, std::vector<int> &, std::vector<int> &)>>::_Vector_impl" }
%"struct.std::_Vector_base<void (*)(const boards &, std::vector<int> &, std::vector<int> &), std::allocator<void (*)(const boards &, std::vector<int> &, std::vector<int> &)>>::_Vector_impl" = type { %"struct.std::_Vector_base<void (*)(const boards &, std::vector<int> &, std::vector<int> &), std::allocator<void (*)(const boards &, std::vector<int> &, std::vector<int> &)>>::_Vector_impl_data" }
%"struct.std::_Vector_base<void (*)(const boards &, std::vector<int> &, std::vector<int> &), std::allocator<void (*)(const boards &, std::vector<int> &, std::vector<int> &)>>::_Vector_impl_data" = type { ptr, ptr, ptr }
%"class.std::vector.22" = type { %"struct.std::_Vector_base.23" }
%"struct.std::_Vector_base.23" = type { %"struct.std::_Vector_base<void (*)(int, int), std::allocator<void (*)(int, int)>>::_Vector_impl" }
%"struct.std::_Vector_base<void (*)(int, int), std::allocator<void (*)(int, int)>>::_Vector_impl" = type { %"struct.std::_Vector_base<void (*)(int, int), std::allocator<void (*)(int, int)>>::_Vector_impl_data" }
%"struct.std::_Vector_base<void (*)(int, int), std::allocator<void (*)(int, int)>>::_Vector_impl_data" = type { ptr, ptr, ptr }
%"class.std::vector.27" = type { %"struct.std::_Vector_base.28" }
%"struct.std::_Vector_base.28" = type { %"struct.std::_Vector_base<void (*)(const std::vector<int> &), std::allocator<void (*)(const std::vector<int> &)>>::_Vector_impl" }
%"struct.std::_Vector_base<void (*)(const std::vector<int> &), std::allocator<void (*)(const std::vector<int> &)>>::_Vector_impl" = type { %"struct.std::_Vector_base<void (*)(const std::vector<int> &), std::allocator<void (*)(const std::vector<int> &)>>::_Vector_impl_data" }
%"struct.std::_Vector_base<void (*)(const std::vector<int> &), std::allocator<void (*)(const std::vector<int> &)>>::_Vector_impl_data" = type { ptr, ptr, ptr }
%"class.std::vector.32" = type { %"struct.std::_Vector_base.33" }
%"struct.std::_Vector_base.33" = type { %"struct.std::_Vector_base<int (System::*)(), std::allocator<int (System::*)()>>::_Vector_impl" }
%"struct.std::_Vector_base<int (System::*)(), std::allocator<int (System::*)()>>::_Vector_impl" = type { %"struct.std::_Vector_base<int (System::*)(), std::allocator<int (System::*)()>>::_Vector_impl_data" }
%"struct.std::_Vector_base<int (System::*)(), std::allocator<int (System::*)()>>::_Vector_impl_data" = type { ptr, ptr, ptr }
%struct.futureTricks = type { i32, i32, [13 x i32], [13 x i32], [13 x i32], [13 x i32] }
%struct.deal = type { i32, i32, [3 x i32], [3 x i32], [4 x [4 x i32]] }
%struct.boards = type { i32, [200 x %struct.deal], [200 x i32], [200 x i32], [200 x i32] }
%struct.solvedBoards = type { i32, [200 x %struct.futureTricks] }
%struct.dealPBN = type { i32, i32, [3 x i32], [3 x i32], [80 x i8] }
%struct.boardsPBN = type { i32, [200 x %struct.dealPBN], [200 x i32], [200 x i32], [200 x i32] }

@param = global %struct.paramType zeroinitializer, align 8
@scheduler = external global %class.Scheduler, align 8
@sysdep = external global %class.System, align 8

; Function Attrs: mustprogress uwtable
define noundef i32 @_Z15SolveAllBoardsNR6boardsR12solvedBoards(ptr noundef nonnull align 4 dereferenceable(21604) %0, ptr noundef nonnull align 4 dereferenceable(43204) %1) #4 {
  %3 = alloca i32, align 4
  %4 = alloca ptr, align 8
  %5 = alloca ptr, align 8
  %6 = alloca i32, align 4
  %7 = alloca i32, align 4
  store ptr %0, ptr %4, align 8
  store ptr %1, ptr %5, align 8
  store i32 0, ptr getelementptr inbounds nuw (%struct.paramType, ptr @param, i32 0, i32 3), align 8
  %8 = load ptr, ptr %4, align 8
  %9 = getelementptr inbounds nuw %struct.boards, ptr %8, i32 0, i32 0
  %10 = load i32, ptr %9, align 4
  %11 = icmp sgt i32 %10, 200
  br i1 %11, label %12, label %13

12:                                               ; preds = %2
  store i32 -101, ptr %3, align 4
  br label %50

13:                                               ; preds = %2
  %14 = load ptr, ptr %4, align 8
  store ptr %14, ptr getelementptr inbounds nuw (%struct.paramType, ptr @param, i32 0, i32 1), align 8
  %15 = load ptr, ptr %5, align 8
  store ptr %15, ptr getelementptr inbounds nuw (%struct.paramType, ptr @param, i32 0, i32 2), align 8
  %16 = load ptr, ptr %4, align 8
  %17 = getelementptr inbounds nuw %struct.boards, ptr %16, i32 0, i32 0
  %18 = load i32, ptr %17, align 4
  store i32 %18, ptr @param, align 8
  %19 = load ptr, ptr %4, align 8
  call void @_ZN9Scheduler11RegisterRunE7RunModeRK6boards(ptr noundef nonnull align 8 dereferenceable(43416) @scheduler, i32 noundef 0, ptr noundef nonnull align 4 dereferenceable(21604) %19)
  %20 = load ptr, ptr %4, align 8
  %21 = call noundef i32 @_ZN6System11RegisterRunE7RunModeRK6boards(ptr noundef nonnull align 8 dereferenceable(200) @sysdep, i32 noundef 0, ptr noundef nonnull align 4 dereferenceable(21604) %20)
  store i32 0, ptr %6, align 4
  br label %22

22:                                               ; preds = %32, %13
  %23 = load i32, ptr %6, align 4
  %24 = icmp slt i32 %23, 200
  br i1 %24, label %25, label %35

25:                                               ; preds = %22
  %26 = load ptr, ptr %5, align 8
  %27 = getelementptr inbounds nuw %struct.solvedBoards, ptr %26, i32 0, i32 1
  %28 = load i32, ptr %6, align 4
  %29 = sext i32 %28 to i64
  %30 = getelementptr inbounds [200 x %struct.futureTricks], ptr %27, i64 0, i64 %29
  %31 = getelementptr inbounds nuw %struct.futureTricks, ptr %30, i32 0, i32 1
  store i32 0, ptr %31, align 4
  br label %32

32:                                               ; preds = %25
  %33 = load i32, ptr %6, align 4
  %34 = add nsw i32 %33, 1
  store i32 %34, ptr %6, align 4
  br label %22, !llvm.loop !7

35:                                               ; preds = %22
  %36 = call noundef i32 @_ZN6System10RunThreadsEv(ptr noundef nonnull align 8 dereferenceable(200) @sysdep)
  store i32 %36, ptr %7, align 4
  %37 = load i32, ptr %7, align 4
  %38 = icmp ne i32 %37, 1
  br i1 %38, label %39, label %41

39:                                               ; preds = %35
  %40 = load i32, ptr %7, align 4
  store i32 %40, ptr %3, align 4
  br label %50

41:                                               ; preds = %35
  %42 = load i32, ptr @param, align 8
  %43 = load ptr, ptr %5, align 8
  %44 = getelementptr inbounds nuw %struct.solvedBoards, ptr %43, i32 0, i32 0
  store i32 %42, ptr %44, align 4
  %45 = load i32, ptr getelementptr inbounds nuw (%struct.paramType, ptr @param, i32 0, i32 3), align 8
  %46 = icmp eq i32 %45, 0
  br i1 %46, label %47, label %48

47:                                               ; preds = %41
  store i32 1, ptr %3, align 4
  br label %50

48:                                               ; preds = %41
  %49 = load i32, ptr getelementptr inbounds nuw (%struct.paramType, ptr @param, i32 0, i32 3), align 8
  store i32 %49, ptr %3, align 4
  br label %50

50:                                               ; preds = %48, %47, %39, %12
  %51 = load i32, ptr %3, align 4
  ret i32 %51
}

; Function Attrs: mustprogress uwtable
define i32 @SolveAllBoards(ptr noundef %0, ptr noundef %1) #4 {
  %3 = alloca i32, align 4
  %4 = alloca ptr, align 8
  %5 = alloca ptr, align 8
  %6 = alloca %struct.boards, align 4
  %7 = alloca i32, align 4
  %8 = alloca i32, align 4
  %9 = alloca i32, align 4
  store ptr %0, ptr %4, align 8
  store ptr %1, ptr %5, align 8
  %10 = load ptr, ptr %4, align 8
  %11 = getelementptr inbounds nuw %struct.boardsPBN, ptr %10, i32 0, i32 0
  %12 = load i32, ptr %11, align 4
  %13 = getelementptr inbounds nuw %struct.boards, ptr %6, i32 0, i32 0
  store i32 %12, ptr %13, align 4
  %14 = getelementptr inbounds nuw %struct.boards, ptr %6, i32 0, i32 0
  %15 = load i32, ptr %14, align 4
  %16 = icmp sgt i32 %15, 200
  br i1 %16, label %17, label %18

17:                                               ; preds = %2
  store i32 -101, ptr %3, align 4
  br label %148

18:                                               ; preds = %2
  store i32 0, ptr %7, align 4
  br label %19

19:                                               ; preds = %141, %18
  %20 = load i32, ptr %7, align 4
  %21 = load ptr, ptr %4, align 8
  %22 = getelementptr inbounds nuw %struct.boardsPBN, ptr %21, i32 0, i32 0
  %23 = load i32, ptr %22, align 4
  %24 = icmp slt i32 %20, %23
  br i1 %24, label %25, label %144

25:                                               ; preds = %19
  %26 = load ptr, ptr %4, align 8
  %27 = getelementptr inbounds nuw %struct.boardsPBN, ptr %26, i32 0, i32 4
  %28 = load i32, ptr %7, align 4
  %29 = sext i32 %28 to i64
  %30 = getelementptr inbounds [200 x i32], ptr %27, i64 0, i64 %29
  %31 = load i32, ptr %30, align 4
  %32 = getelementptr inbounds nuw %struct.boards, ptr %6, i32 0, i32 4
  %33 = load i32, ptr %7, align 4
  %34 = sext i32 %33 to i64
  %35 = getelementptr inbounds [200 x i32], ptr %32, i64 0, i64 %34
  store i32 %31, ptr %35, align 4
  %36 = load ptr, ptr %4, align 8
  %37 = getelementptr inbounds nuw %struct.boardsPBN, ptr %36, i32 0, i32 3
  %38 = load i32, ptr %7, align 4
  %39 = sext i32 %38 to i64
  %40 = getelementptr inbounds [200 x i32], ptr %37, i64 0, i64 %39
  %41 = load i32, ptr %40, align 4
  %42 = getelementptr inbounds nuw %struct.boards, ptr %6, i32 0, i32 3
  %43 = load i32, ptr %7, align 4
  %44 = sext i32 %43 to i64
  %45 = getelementptr inbounds [200 x i32], ptr %42, i64 0, i64 %44
  store i32 %41, ptr %45, align 4
  %46 = load ptr, ptr %4, align 8
  %47 = getelementptr inbounds nuw %struct.boardsPBN, ptr %46, i32 0, i32 2
  %48 = load i32, ptr %7, align 4
  %49 = sext i32 %48 to i64
  %50 = getelementptr inbounds [200 x i32], ptr %47, i64 0, i64 %49
  %51 = load i32, ptr %50, align 4
  %52 = getelementptr inbounds nuw %struct.boards, ptr %6, i32 0, i32 2
  %53 = load i32, ptr %7, align 4
  %54 = sext i32 %53 to i64
  %55 = getelementptr inbounds [200 x i32], ptr %52, i64 0, i64 %54
  store i32 %51, ptr %55, align 4
  %56 = load ptr, ptr %4, align 8
  %57 = getelementptr inbounds nuw %struct.boardsPBN, ptr %56, i32 0, i32 1
  %58 = load i32, ptr %7, align 4
  %59 = sext i32 %58 to i64
  %60 = getelementptr inbounds [200 x %struct.dealPBN], ptr %57, i64 0, i64 %59
  %61 = getelementptr inbounds nuw %struct.dealPBN, ptr %60, i32 0, i32 1
  %62 = load i32, ptr %61, align 4
  %63 = getelementptr inbounds nuw %struct.boards, ptr %6, i32 0, i32 1
  %64 = load i32, ptr %7, align 4
  %65 = sext i32 %64 to i64
  %66 = getelementptr inbounds [200 x %struct.deal], ptr %63, i64 0, i64 %65
  %67 = getelementptr inbounds nuw %struct.deal, ptr %66, i32 0, i32 1
  store i32 %62, ptr %67, align 4
  %68 = load ptr, ptr %4, align 8
  %69 = getelementptr inbounds nuw %struct.boardsPBN, ptr %68, i32 0, i32 1
  %70 = load i32, ptr %7, align 4
  %71 = sext i32 %70 to i64
  %72 = getelementptr inbounds [200 x %struct.dealPBN], ptr %69, i64 0, i64 %71
  %73 = getelementptr inbounds nuw %struct.dealPBN, ptr %72, i32 0, i32 0
  %74 = load i32, ptr %73, align 4
  %75 = getelementptr inbounds nuw %struct.boards, ptr %6, i32 0, i32 1
  %76 = load i32, ptr %7, align 4
  %77 = sext i32 %76 to i64
  %78 = getelementptr inbounds [200 x %struct.deal], ptr %75, i64 0, i64 %77
  %79 = getelementptr inbounds nuw %struct.deal, ptr %78, i32 0, i32 0
  store i32 %74, ptr %79, align 4
  store i32 0, ptr %8, align 4
  br label %80

80:                                               ; preds = %120, %25
  %81 = load i32, ptr %8, align 4
  %82 = icmp sle i32 %81, 2
  br i1 %82, label %83, label %123

83:                                               ; preds = %80
  %84 = load ptr, ptr %4, align 8
  %85 = getelementptr inbounds nuw %struct.boardsPBN, ptr %84, i32 0, i32 1
  %86 = load i32, ptr %7, align 4
  %87 = sext i32 %86 to i64
  %88 = getelementptr inbounds [200 x %struct.dealPBN], ptr %85, i64 0, i64 %87
  %89 = getelementptr inbounds nuw %struct.dealPBN, ptr %88, i32 0, i32 2
  %90 = load i32, ptr %8, align 4
  %91 = sext i32 %90 to i64
  %92 = getelementptr inbounds [3 x i32], ptr %89, i64 0, i64 %91
  %93 = load i32, ptr %92, align 4
  %94 = getelementptr inbounds nuw %struct.boards, ptr %6, i32 0, i32 1
  %95 = load i32, ptr %7, align 4
  %96 = sext i32 %95 to i64
  %97 = getelementptr inbounds [200 x %struct.deal], ptr %94, i64 0, i64 %96
  %98 = getelementptr inbounds nuw %struct.deal, ptr %97, i32 0, i32 2
  %99 = load i32, ptr %8, align 4
  %100 = sext i32 %99 to i64
  %101 = getelementptr inbounds [3 x i32], ptr %98, i64 0, i64 %100
  store i32 %93, ptr %101, align 4
  %102 = load ptr, ptr %4, align 8
  %103 = getelementptr inbounds nuw %struct.boardsPBN, ptr %102, i32 0, i32 1
  %104 = load i32, ptr %7, align 4
  %105 = sext i32 %104 to i64
  %106 = getelementptr inbounds [200 x %struct.dealPBN], ptr %103, i64 0, i64 %105
  %107 = getelementptr inbounds nuw %struct.dealPBN, ptr %106, i32 0, i32 3
  %108 = load i32, ptr %8, align 4
  %109 = sext i32 %108 to i64
  %110 = getelementptr inbounds [3 x i32], ptr %107, i64 0, i64 %109
  %111 = load i32, ptr %110, align 4
  %112 = getelementptr inbounds nuw %struct.boards, ptr %6, i32 0, i32 1
  %113 = load i32, ptr %7, align 4
  %114 = sext i32 %113 to i64
  %115 = getelementptr inbounds [200 x %struct.deal], ptr %112, i64 0, i64 %114
  %116 = getelementptr inbounds nuw %struct.deal, ptr %115, i32 0, i32 3
  %117 = load i32, ptr %8, align 4
  %118 = sext i32 %117 to i64
  %119 = getelementptr inbounds [3 x i32], ptr %116, i64 0, i64 %118
  store i32 %111, ptr %119, align 4
  br label %120

120:                                              ; preds = %83
  %121 = load i32, ptr %8, align 4
  %122 = add nsw i32 %121, 1
  store i32 %122, ptr %8, align 4
  br label %80, !llvm.loop !9

123:                                              ; preds = %80
  %124 = load ptr, ptr %4, align 8
  %125 = getelementptr inbounds nuw %struct.boardsPBN, ptr %124, i32 0, i32 1
  %126 = load i32, ptr %7, align 4
  %127 = sext i32 %126 to i64
  %128 = getelementptr inbounds [200 x %struct.dealPBN], ptr %125, i64 0, i64 %127
  %129 = getelementptr inbounds nuw %struct.dealPBN, ptr %128, i32 0, i32 4
  %130 = getelementptr inbounds [80 x i8], ptr %129, i64 0, i64 0
  %131 = getelementptr inbounds nuw %struct.boards, ptr %6, i32 0, i32 1
  %132 = load i32, ptr %7, align 4
  %133 = sext i32 %132 to i64
  %134 = getelementptr inbounds [200 x %struct.deal], ptr %131, i64 0, i64 %133
  %135 = getelementptr inbounds nuw %struct.deal, ptr %134, i32 0, i32 4
  %136 = getelementptr inbounds [4 x [4 x i32]], ptr %135, i64 0, i64 0
  %137 = call noundef i32 @_Z14ConvertFromPBNPKcPA4_j(ptr noundef %130, ptr noundef %136)
  %138 = icmp ne i32 %137, 1
  br i1 %138, label %139, label %140

139:                                              ; preds = %123
  store i32 -99, ptr %3, align 4
  br label %148

140:                                              ; preds = %123
  br label %141

141:                                              ; preds = %140
  %142 = load i32, ptr %7, align 4
  %143 = add nsw i32 %142, 1
  store i32 %143, ptr %7, align 4
  br label %19, !llvm.loop !10

144:                                              ; preds = %19
  %145 = load ptr, ptr %5, align 8
  %146 = call noundef i32 @_Z15SolveAllBoardsNR6boardsR12solvedBoards(ptr noundef nonnull align 4 dereferenceable(21604) %6, ptr noundef nonnull align 4 dereferenceable(43204) %145)
  store i32 %146, ptr %9, align 4
  %147 = load i32, ptr %9, align 4
  store i32 %147, ptr %3, align 4
  br label %148

148:                                              ; preds = %144, %139, %17
  %149 = load i32, ptr %3, align 4
  ret i32 %149
}