; Function Attrs: mustprogress uwtable
define i32 @SolveAllBoards(ptr noundef %0, ptr noundef %1) local_unnamed_addr #3 {
  %3 = alloca %struct.boards, align 4
  %4 = load i32, ptr %0, align 4
  store i32 %4, ptr %3, align 4
  %5 = icmp sgt i32 %4, 200
  br i1 %5, label %_Z15SolveAllBoardsNR6boardsR12solvedBoards.exit, label %.preheader

.preheader:                                       ; preds = %2
  %6 = icmp sgt i32 %4, 0
  br i1 %6, label %.lr.ph, label %._crit_edge.thread

._crit_edge.thread:                               ; preds = %.preheader
  store i32 0, ptr getelementptr inbounds nuw (i8, ptr @param, i64 24), align 8
  br label %51

.lr.ph:                                           ; preds = %.preheader
  %7 = getelementptr inbounds nuw i8, ptr %0, i64 24004
  %8 = getelementptr inbounds nuw i8, ptr %3, i64 20804
  %9 = getelementptr inbounds nuw i8, ptr %0, i64 23204
  %10 = getelementptr inbounds nuw i8, ptr %3, i64 20004
  %11 = getelementptr inbounds nuw i8, ptr %0, i64 22404
  %12 = getelementptr inbounds nuw i8, ptr %3, i64 19204
  %13 = getelementptr inbounds nuw i8, ptr %0, i64 4
  %14 = getelementptr inbounds nuw i8, ptr %3, i64 4
  br label %19

15:                                               ; preds = %46
  %indvars.iv.next42 = add nuw nsw i64 %indvars.iv41, 1
  %16 = load i32, ptr %0, align 4
  %17 = sext i32 %16 to i64
  %18 = icmp slt i64 %indvars.iv.next42, %17
  br i1 %18, label %19, label %._crit_edge, !llvm.loop !9

19:                                               ; preds = %.lr.ph, %15
  %indvars.iv41 = phi i64 [ 0, %.lr.ph ], [ %indvars.iv.next42, %15 ]
  %20 = getelementptr inbounds nuw [200 x i32], ptr %7, i64 0, i64 %indvars.iv41
  %21 = load i32, ptr %20, align 4
  %22 = getelementptr inbounds nuw [200 x i32], ptr %8, i64 0, i64 %indvars.iv41
  store i32 %21, ptr %22, align 4
  %23 = getelementptr inbounds nuw [200 x i32], ptr %9, i64 0, i64 %indvars.iv41
  %24 = load i32, ptr %23, align 4
  %25 = getelementptr inbounds nuw [200 x i32], ptr %10, i64 0, i64 %indvars.iv41
  store i32 %24, ptr %25, align 4
  %26 = getelementptr inbounds nuw [200 x i32], ptr %11, i64 0, i64 %indvars.iv41
  %27 = load i32, ptr %26, align 4
  %28 = getelementptr inbounds nuw [200 x i32], ptr %12, i64 0, i64 %indvars.iv41
  store i32 %27, ptr %28, align 4
  %29 = getelementptr inbounds nuw [200 x %struct.dealPBN], ptr %13, i64 0, i64 %indvars.iv41
  %30 = getelementptr inbounds nuw i8, ptr %29, i64 4
  %31 = load i32, ptr %30, align 4
  %32 = getelementptr inbounds nuw [200 x %struct.deal], ptr %14, i64 0, i64 %indvars.iv41
  %33 = getelementptr inbounds nuw i8, ptr %32, i64 4
  store i32 %31, ptr %33, align 4
  %34 = load i32, ptr %29, align 4
  store i32 %34, ptr %32, align 4
  %35 = getelementptr inbounds nuw i8, ptr %29, i64 8
  %36 = getelementptr inbounds nuw i8, ptr %32, i64 8
  %37 = getelementptr inbounds nuw i8, ptr %29, i64 20
  %38 = getelementptr inbounds nuw i8, ptr %32, i64 20
  br label %39

39:                                               ; preds = %19, %39
  %indvars.iv = phi i64 [ 0, %19 ], [ %indvars.iv.next, %39 ]
  %40 = getelementptr inbounds nuw [3 x i32], ptr %35, i64 0, i64 %indvars.iv
  %41 = load i32, ptr %40, align 4
  %42 = getelementptr inbounds nuw [3 x i32], ptr %36, i64 0, i64 %indvars.iv
  store i32 %41, ptr %42, align 4
  %43 = getelementptr inbounds nuw [3 x i32], ptr %37, i64 0, i64 %indvars.iv
  %44 = load i32, ptr %43, align 4
  %45 = getelementptr inbounds nuw [3 x i32], ptr %38, i64 0, i64 %indvars.iv
  store i32 %44, ptr %45, align 4
  %indvars.iv.next = add nuw nsw i64 %indvars.iv, 1
  %exitcond.not = icmp eq i64 %indvars.iv.next, 3
  br i1 %exitcond.not, label %46, label %39, !llvm.loop !10

46:                                               ; preds = %39
  %47 = getelementptr inbounds nuw i8, ptr %29, i64 32
  %48 = getelementptr inbounds nuw i8, ptr %32, i64 32
  %49 = call noundef i32 @_Z14ConvertFromPBNPKcPA4_j(ptr noundef nonnull %47, ptr noundef nonnull %48)
  %.not = icmp eq i32 %49, 1
  br i1 %.not, label %15, label %_Z15SolveAllBoardsNR6boardsR12solvedBoards.exit

._crit_edge:                                      ; preds = %15
  %.pre = load i32, ptr %3, align 4
  store i32 0, ptr getelementptr inbounds nuw (i8, ptr @param, i64 24), align 8
  %50 = icmp sgt i32 %.pre, 200
  br i1 %50, label %_Z15SolveAllBoardsNR6boardsR12solvedBoards.exit, label %51

51:                                               ; preds = %._crit_edge.thread, %._crit_edge
  %52 = phi i32 [ %4, %._crit_edge.thread ], [ %.pre, %._crit_edge ]
  store ptr %3, ptr getelementptr inbounds nuw (i8, ptr @param, i64 8), align 8
  store ptr %1, ptr getelementptr inbounds nuw (i8, ptr @param, i64 16), align 8
  store i32 %52, ptr @param, align 8
  call void @_ZN9Scheduler11RegisterRunE7RunModeRK6boards(ptr noundef nonnull align 8 dereferenceable(43416) @scheduler, i32 noundef 0, ptr noundef nonnull align 4 dereferenceable(21604) %3)
  %53 = call noundef i32 @_ZN6System11RegisterRunE7RunModeRK6boards(ptr noundef nonnull align 8 dereferenceable(200) @sysdep, i32 noundef 0, ptr noundef nonnull align 4 dereferenceable(21604) %3)
  %54 = getelementptr inbounds nuw i8, ptr %1, i64 8
  br label %55

55:                                               ; preds = %55, %51
  %indvars.iv.i = phi i64 [ 0, %51 ], [ %indvars.iv.next.i, %55 ]
  %56 = mul nuw nsw i64 %indvars.iv.i, 216
  %57 = getelementptr i8, ptr %54, i64 %56
  store i32 0, ptr %57, align 4
  %indvars.iv.next.i = add nuw nsw i64 %indvars.iv.i, 1
  %exitcond.not.i = icmp eq i64 %indvars.iv.next.i, 200
  br i1 %exitcond.not.i, label %58, label %55, !llvm.loop !7

58:                                               ; preds = %55
  %59 = call noundef i32 @_ZN6System10RunThreadsEv(ptr noundef nonnull align 8 dereferenceable(200) @sysdep)
  %.not.i = icmp eq i32 %59, 1
  br i1 %.not.i, label %60, label %_Z15SolveAllBoardsNR6boardsR12solvedBoards.exit

60:                                               ; preds = %58
  %61 = load i32, ptr @param, align 8
  store i32 %61, ptr %1, align 4
  %62 = load i32, ptr getelementptr inbounds nuw (i8, ptr @param, i64 24), align 8
  %..i = call i32 @llvm.umax.i32(i32 %62, i32 1)
  br label %_Z15SolveAllBoardsNR6boardsR12solvedBoards.exit

_Z15SolveAllBoardsNR6boardsR12solvedBoards.exit:  ; preds = %46, %60, %58, %._crit_edge, %2
  %.0 = phi i32 [ -101, %2 ], [ -101, %._crit_edge ], [ %59, %58 ], [ %..i, %60 ], [ -99, %46 ]
  ret i32 %.0
}